target datalayout = "e-m:e-p270:32:32-p271:32:32-p272:64:64-i64:64-i128:128-f80:128-n8:16:32:64-S128"
target triple = "x86_64-pc-linux-gnu"

%struct.cli_ctx_tag = type { ptr, ptr, ptr, ptr, ptr, ptr, ptr, i64, ptr, i32, i32, ptr, i32, i32, ptr, [16 x i8], ptr, ptr, ptr, ptr, ptr, ptr, %struct.timeval, i8, i8 }
%struct.timeval = type { i64, i64 }
%struct.recursion_level_tag = type { i32, i64, ptr, i32, i32, i32, %struct.image_fuzzy_hash, i8 }
%struct.image_fuzzy_hash = type { [8 x i8] }
%struct.cl_fmap = type { ptr, ptr, ptr, i64, i64, i64, i64, i8, i8, i8, i64, i64, i64, i64, ptr, ptr, ptr, ptr, ptr, ptr, ptr, i8, [16 x i8], i8, [20 x i8], i8, [32 x i8], ptr, ptr }

@.str.5 = private unnamed_addr constant [47 x i8] c"emax_reached: marked parents as non cacheable\0A\00", align 1

; Function Attrs: nounwind uwtable
define void @emax_reached(ptr noundef %0) #0 {
  %2 = alloca ptr, align 8
  %3 = alloca i32, align 4
  %4 = alloca ptr, align 8
  store ptr %0, ptr %2, align 8
  %5 = load ptr, ptr %2, align 8
  %6 = icmp eq ptr null, %5
  br i1 %6, label %12, label %7

7:                                                ; preds = %1
  %8 = load ptr, ptr %2, align 8
  %9 = getelementptr inbounds %struct.cli_ctx_tag, ptr %8, i32 0, i32 11
  %10 = load ptr, ptr %9, align 8
  %11 = icmp eq ptr null, %10
  br i1 %11, label %12, label %13

12:                                               ; preds = %7, %1
  br label %38

13:                                               ; preds = %7
  %14 = load ptr, ptr %2, align 8
  %15 = getelementptr inbounds %struct.cli_ctx_tag, ptr %14, i32 0, i32 13
  %16 = load i32, ptr %15, align 4
  store i32 %16, ptr %3, align 4
  br label %17

17:                                               ; preds = %34, %13
  %18 = load i32, ptr %3, align 4
  %19 = icmp sge i32 %18, 0
  br i1 %19, label %20, label %37

20:                                               ; preds = %17
  %21 = load ptr, ptr %2, align 8
  %22 = getelementptr inbounds %struct.cli_ctx_tag, ptr %21, i32 0, i32 11
  %23 = load ptr, ptr %22, align 8
  %24 = load i32, ptr %3, align 4
  %25 = sext i32 %24 to i64
  %26 = getelementptr inbounds %struct.recursion_level_tag, ptr %23, i64 %25
  %27 = getelementptr inbounds %struct.recursion_level_tag, ptr %26, i32 0, i32 2
  %28 = load ptr, ptr %27, align 8
  store ptr %28, ptr %4, align 8
  %29 = load ptr, ptr %4, align 8
  %30 = icmp ne ptr null, %29
  br i1 %30, label %31, label %34

31:                                               ; preds = %20
  %32 = load ptr, ptr %4, align 8
  %33 = getelementptr inbounds %struct.cl_fmap, ptr %32, i32 0, i32 8
  store i8 1, ptr %33, align 1
  br label %34

34:                                               ; preds = %31, %20
  %35 = load i32, ptr %3, align 4
  %36 = sub nsw i32 %35, 1
  store i32 %36, ptr %3, align 4
  br label %17

37:                                               ; preds = %17
  call void (ptr, ...) @cli_dbgmsg(ptr noundef @.str.5)
  br label %38

38:                                               ; preds = %37, %12
  ret void
}