; Function Attrs: nounwind uwtable
define void @emax_reached(ptr noundef readonly %0) local_unnamed_addr #0 {
  %2 = icmp eq ptr %0, null
  br i1 %2, label %19, label %3

3:                                                ; preds = %1
  %4 = getelementptr inbounds nuw i8, ptr %0, i64 80
  %5 = load ptr, ptr %4, align 8
  %6 = icmp eq ptr %5, null
  br i1 %6, label %19, label %7

7:                                                ; preds = %3
  %8 = getelementptr inbounds nuw i8, ptr %0, i64 92
  %9 = load i32, ptr %8, align 4
  %10 = icmp sgt i32 %9, -1
  br i1 %10, label %.lr.ph.preheader, label %._crit_edge

.lr.ph.preheader:                                 ; preds = %7
  %11 = zext nneg i32 %9 to i64
  br label %.lr.ph

.lr.ph:                                           ; preds = %.lr.ph.preheader, %17
  %indvars.iv = phi i64 [ %11, %.lr.ph.preheader ], [ %indvars.iv.next, %17 ]
  %12 = load ptr, ptr %4, align 8
  %13 = getelementptr inbounds nuw %struct.recursion_level_tag, ptr %12, i64 %indvars.iv, i32 2
  %14 = load ptr, ptr %13, align 8
  %.not = icmp eq ptr %14, null
  br i1 %.not, label %17, label %15

15:                                               ; preds = %.lr.ph
  %16 = getelementptr inbounds nuw i8, ptr %14, i64 57
  store i8 1, ptr %16, align 1
  br label %17

17:                                               ; preds = %15, %.lr.ph
  %indvars.iv.next = add nsw i64 %indvars.iv, -1
  %18 = icmp sgt i64 %indvars.iv, 0
  br i1 %18, label %.lr.ph, label %._crit_edge

._crit_edge:                                      ; preds = %17, %7
  tail call void (ptr, ...) @cli_dbgmsg(ptr noundef nonnull @.str.5) #16
  br label %19

19:                                               ; preds = %1, %3, %._crit_edge
  ret void
}